target datalayout = "e-m:e-p270:32:32-p271:32:32-p272:64:64-i64:64-i128:128-f80:128-n8:16:32:64-S128"
target triple = "x86_64-pc-linux-gnu"

@stdout = external global ptr, align 8
@.str.57 = private unnamed_addr constant [11 x i8] c"_test13_.v\00", align 1
@.str.58 = private unnamed_addr constant [3 x i8] c"wb\00", align 1
@.str.59 = private unnamed_addr constant [26 x i8] c"module test ( a, b, z );\0A\00", align 1
@.str.60 = private unnamed_addr constant [20 x i8] c"input %s [%d:0] a;\0A\00", align 1
@.str.61 = private unnamed_addr constant [7 x i8] c"signed\00", align 1
@.str.62 = private unnamed_addr constant [1 x i8] zeroinitializer, align 1
@.str.63 = private unnamed_addr constant [20 x i8] c"input %s [%d:0] b;\0A\00", align 1
@.str.64 = private unnamed_addr constant [21 x i8] c"output %s [%d:0] z;\0A\00", align 1
@.str.65 = private unnamed_addr constant [19 x i8] c"assign z = a * b;\0A\00", align 1
@.str.66 = private unnamed_addr constant [11 x i8] c"endmodule\0A\00", align 1
@.str.67 = private unnamed_addr constant [105 x i8] c"%read _test13_.v; %blast; &ps; &w 1.aig;  %read _test13_.v; %blast -b; &ps; &w 2.aig; cec -n 1.aig 2.aig\00", align 1
@.str.68 = private unnamed_addr constant [30 x i8] c"Cannot execute command \22%s\22.\0A\00", align 1
@.str.69 = private unnamed_addr constant [25 x i8] c"Finished %d iterations.\0A\00", align 1

; Function Attrs: nounwind uwtable
define void @Wlc_MultBlastFileGen(i32 noundef %0, i32 noundef %1, i32 noundef %2) #0 {
  %4 = alloca i32, align 4
  %5 = alloca i32, align 4
  %6 = alloca i32, align 4
  %7 = alloca ptr, align 8
  store i32 %0, ptr %4, align 4, !tbaa !8
  store i32 %1, ptr %5, align 4, !tbaa !8
  store i32 %2, ptr %6, align 4, !tbaa !8
  call void @llvm.lifetime.start.p0(i64 8, ptr %7) #12
  %8 = call noalias ptr @fopen(ptr noundef @.str.57, ptr noundef @.str.58)
  store ptr %8, ptr %7, align 8, !tbaa !141
  %9 = load ptr, ptr %7, align 8, !tbaa !141
  %10 = call i32 (ptr, ptr, ...) @fprintf(ptr noundef %9, ptr noundef @.str.59) #12
  %11 = load ptr, ptr %7, align 8, !tbaa !141
  %12 = load i32, ptr %6, align 4, !tbaa !8
  %13 = icmp ne i32 %12, 0
  %14 = select i1 %13, ptr @.str.61, ptr @.str.62
  %15 = load i32, ptr %4, align 4, !tbaa !8
  %16 = sub nsw i32 %15, 1
  %17 = call i32 (ptr, ptr, ...) @fprintf(ptr noundef %11, ptr noundef @.str.60, ptr noundef %14, i32 noundef %16) #12
  %18 = load ptr, ptr %7, align 8, !tbaa !141
  %19 = load i32, ptr %6, align 4, !tbaa !8
  %20 = icmp ne i32 %19, 0
  %21 = select i1 %20, ptr @.str.61, ptr @.str.62
  %22 = load i32, ptr %5, align 4, !tbaa !8
  %23 = sub nsw i32 %22, 1
  %24 = call i32 (ptr, ptr, ...) @fprintf(ptr noundef %18, ptr noundef @.str.63, ptr noundef %21, i32 noundef %23) #12
  %25 = load ptr, ptr %7, align 8, !tbaa !141
  %26 = load i32, ptr %6, align 4, !tbaa !8
  %27 = icmp ne i32 %26, 0
  %28 = select i1 %27, ptr @.str.61, ptr @.str.62
  %29 = load i32, ptr %4, align 4, !tbaa !8
  %30 = load i32, ptr %5, align 4, !tbaa !8
  %31 = add nsw i32 %29, %30
  %32 = sub nsw i32 %31, 1
  %33 = call i32 (ptr, ptr, ...) @fprintf(ptr noundef %25, ptr noundef @.str.64, ptr noundef %28, i32 noundef %32) #12
  %34 = load ptr, ptr %7, align 8, !tbaa !141
  %35 = call i32 (ptr, ptr, ...) @fprintf(ptr noundef %34, ptr noundef @.str.65) #12
  %36 = load ptr, ptr %7, align 8, !tbaa !141
  %37 = call i32 (ptr, ptr, ...) @fprintf(ptr noundef %36, ptr noundef @.str.66) #12
  %38 = load ptr, ptr %7, align 8, !tbaa !141
  %39 = call i32 @fclose(ptr noundef %38)
  call void @llvm.lifetime.end.p0(i64 8, ptr %7) #12
  ret void
}

; Function Attrs: nounwind uwtable
define void @Wlc_MultBlastTest() #0 {
  %1 = alloca ptr, align 8
  %2 = alloca i32, align 4
  %3 = alloca i32, align 4
  %4 = alloca i32, align 4
  %5 = alloca i32, align 4
  %6 = alloca i32, align 4
  call void @llvm.lifetime.start.p0(i64 8, ptr %1) #12
  store ptr @.str.67, ptr %1, align 8, !tbaa !42
  call void @llvm.lifetime.start.p0(i64 4, ptr %2) #12
  call void @llvm.lifetime.start.p0(i64 4, ptr %3) #12
  call void @llvm.lifetime.start.p0(i64 4, ptr %4) #12
  call void @llvm.lifetime.start.p0(i64 4, ptr %5) #12
  store i32 0, ptr %5, align 4, !tbaa !8
  store i32 1, ptr %2, align 4, !tbaa !8
  br label %7

7:                                                ; preds = %41, %0
  %8 = load i32, ptr %2, align 4, !tbaa !8
  %9 = icmp slt i32 %8, 8
  br i1 %9, label %10, label %44

10:                                               ; preds = %7
  store i32 1, ptr %3, align 4, !tbaa !8
  br label %11

11:                                               ; preds = %37, %10
  %12 = load i32, ptr %3, align 4, !tbaa !8
  %13 = icmp slt i32 %12, 8
  br i1 %13, label %14, label %40

14:                                               ; preds = %11
  store i32 0, ptr %4, align 4, !tbaa !8
  br label %15

15:                                               ; preds = %33, %14
  %16 = load i32, ptr %4, align 4, !tbaa !8
  %17 = icmp slt i32 %16, 2
  br i1 %17, label %18, label %36

18:                                               ; preds = %15
  %19 = load i32, ptr %2, align 4, !tbaa !8
  %20 = load i32, ptr %3, align 4, !tbaa !8
  %21 = load i32, ptr %4, align 4, !tbaa !8
  call void @Wlc_MultBlastFileGen(i32 noundef %19, i32 noundef %20, i32 noundef %21)
  %22 = call ptr (...) @Abc_FrameGetGlobalFrame()
  %23 = load ptr, ptr %1, align 8, !tbaa !42
  %24 = call i32 @Cmd_CommandExecute(ptr noundef %22, ptr noundef %23)
  %25 = icmp ne i32 %24, 0
  br i1 %25, label %26, label %30

26:                                               ; preds = %18
  %27 = load ptr, ptr @stdout, align 8, !tbaa !141
  %28 = load ptr, ptr %1, align 8, !tbaa !42
  %29 = call i32 (ptr, ptr, ...) @fprintf(ptr noundef %27, ptr noundef @.str.68, ptr noundef %28) #12
  store i32 1, ptr %6, align 4
  br label %47

30:                                               ; preds = %18
  %31 = load i32, ptr %5, align 4, !tbaa !8
  %32 = add nsw i32 %31, 1
  store i32 %32, ptr %5, align 4, !tbaa !8
  br label %33

33:                                               ; preds = %30
  %34 = load i32, ptr %4, align 4, !tbaa !8
  %35 = add nsw i32 %34, 1
  store i32 %35, ptr %4, align 4, !tbaa !8
  br label %15, !llvm.loop !382

36:                                               ; preds = %15
  br label %37

37:                                               ; preds = %36
  %38 = load i32, ptr %3, align 4, !tbaa !8
  %39 = add nsw i32 %38, 1
  store i32 %39, ptr %3, align 4, !tbaa !8
  br label %11, !llvm.loop !383

40:                                               ; preds = %11
  br label %41

41:                                               ; preds = %40
  %42 = load i32, ptr %2, align 4, !tbaa !8
  %43 = add nsw i32 %42, 1
  store i32 %43, ptr %2, align 4, !tbaa !8
  br label %7, !llvm.loop !384

44:                                               ; preds = %7
  %45 = load i32, ptr %5, align 4, !tbaa !8
  %46 = call i32 (ptr, ...) @printf(ptr noundef @.str.69, i32 noundef %45)
  store i32 0, ptr %6, align 4
  br label %47

47:                                               ; preds = %44, %26
  call void @llvm.lifetime.end.p0(i64 4, ptr %5) #12
  call void @llvm.lifetime.end.p0(i64 4, ptr %4) #12
  call void @llvm.lifetime.end.p0(i64 4, ptr %3) #12
  call void @llvm.lifetime.end.p0(i64 4, ptr %2) #12
  call void @llvm.lifetime.end.p0(i64 8, ptr %1) #12
  %48 = load i32, ptr %6, align 4
  switch i32 %48, label %50 [
    i32 0, label %49
    i32 1, label %49
  ]

49:                                               ; preds = %47, %47
  ret void

50:                                               ; preds = %47
  unreachable
}