; Function Attrs: nounwind uwtable
define void @Wlc_MultBlastTest() local_unnamed_addr #2 {
  br label %.preheader15

.preheader15:                                     ; preds = %0, %22
  %.01423 = phi i32 [ 1, %0 ], [ %23, %22 ]
  %1 = add nsw i32 %.01423, -1
  br label %.preheader

.preheader:                                       ; preds = %.preheader15, %20
  %.01321 = phi i32 [ 1, %.preheader15 ], [ %21, %20 ]
  %2 = add nsw i32 %.01321, -1
  %3 = add nuw nsw i32 %.01321, %1
  br label %4

4:                                                ; preds = %.preheader, %19
  %.not.i = phi i1 [ true, %.preheader ], [ false, %19 ]
  %5 = tail call noalias ptr @fopen(ptr noundef nonnull @.str.57, ptr noundef nonnull @.str.58)
  %6 = tail call i64 @fwrite(ptr nonnull @.str.59, i64 25, i64 1, ptr %5)
  %7 = select i1 %.not.i, ptr @.str.62, ptr @.str.61
  %8 = tail call i32 (ptr, ptr, ...) @fprintf(ptr noundef %5, ptr noundef nonnull @.str.60, ptr noundef nonnull %7, i32 noundef %1) #23
  %9 = tail call i32 (ptr, ptr, ...) @fprintf(ptr noundef %5, ptr noundef nonnull @.str.63, ptr noundef nonnull %7, i32 noundef %2) #23
  %10 = tail call i32 (ptr, ptr, ...) @fprintf(ptr noundef %5, ptr noundef nonnull @.str.64, ptr noundef nonnull %7, i32 noundef %3) #23
  %11 = tail call i64 @fwrite(ptr nonnull @.str.65, i64 18, i64 1, ptr %5)
  %12 = tail call i64 @fwrite(ptr nonnull @.str.66, i64 10, i64 1, ptr %5)
  %13 = tail call i32 @fclose(ptr noundef %5)
  %14 = tail call ptr (...) @Abc_FrameGetGlobalFrame() #23
  %15 = tail call i32 @Cmd_CommandExecute(ptr noundef %14, ptr noundef nonnull @.str.67) #23
  %.not = icmp eq i32 %15, 0
  br i1 %.not, label %19, label %16

16:                                               ; preds = %4
  %17 = load ptr, ptr @stdout, align 8, !tbaa !149
  %18 = tail call i32 (ptr, ptr, ...) @fprintf(ptr noundef %17, ptr noundef nonnull @.str.68, ptr noundef nonnull @.str.67) #23
  br label %26

19:                                               ; preds = %4
  br i1 %.not.i, label %4, label %20, !llvm.loop !351

20:                                               ; preds = %19
  %21 = add nuw nsw i32 %.01321, 1
  %exitcond.not = icmp eq i32 %21, 8
  br i1 %exitcond.not, label %22, label %.preheader, !llvm.loop !352

22:                                               ; preds = %20
  %23 = add nuw nsw i32 %.01423, 1
  %exitcond25.not = icmp eq i32 %23, 8
  br i1 %exitcond25.not, label %24, label %.preheader15, !llvm.loop !353

24:                                               ; preds = %22
  %25 = tail call i32 (ptr, ...) @printf(ptr noundef nonnull dereferenceable(1) @.str.69, i32 noundef 98)
  br label %26

26:                                               ; preds = %24, %16
  ret void
}